target datalayout = "e-m:e-p270:32:32-p271:32:32-p272:64:64-i64:64-i128:128-f80:128-n8:16:32:64-S128"
target triple = "x86_64-pc-linux-gnu"

%struct.grpc_closure_list = type { ptr, ptr }
%"class.grpc_core::ExecCtx" = type { ptr, %struct.grpc_closure_list, %"struct.grpc_core::ExecCtx::CombinerData", i64, %"class.std::optional", ptr }
%"struct.grpc_core::ExecCtx::CombinerData" = type { ptr, ptr }
%"class.std::optional" = type { %"struct.std::_Optional_base" }
%"struct.std::_Optional_base" = type { %"struct.std::_Optional_payload" }
%"struct.std::_Optional_payload" = type { %"struct.std::_Optional_payload.base.7", [7 x i8] }
%"struct.std::_Optional_payload.base.7" = type { %"struct.std::_Optional_payload_base.base.6" }
%"struct.std::_Optional_payload_base.base.6" = type <{ %"union.std::_Optional_payload_base<grpc_core::ScopedTimeCache>::_Storage", i8 }>
%"union.std::_Optional_payload_base<grpc_core::ScopedTimeCache>::_Storage" = type { %"class.grpc_core::ScopedTimeCache" }
%"class.grpc_core::ScopedTimeCache" = type { %"class.grpc_core::Timestamp::ScopedSource", %"class.std::optional.1" }
%"class.grpc_core::Timestamp::ScopedSource" = type { %"class.grpc_core::Timestamp::Source", ptr }
%"class.grpc_core::Timestamp::Source" = type { ptr }
%"class.std::optional.1" = type { %"struct.std::_Optional_base.2" }
%"struct.std::_Optional_base.2" = type { %"struct.std::_Optional_payload.4" }
%"struct.std::_Optional_payload.4" = type { %"struct.std::_Optional_payload_base.base", [7 x i8] }
%"struct.std::_Optional_payload_base.base" = type <{ %"union.std::_Optional_payload_base<grpc_core::Timestamp>::_Storage", i8 }>
%"union.std::_Optional_payload_base<grpc_core::Timestamp>::_Storage" = type { %"class.grpc_core::Timestamp" }
%"class.grpc_core::Timestamp" = type { i64 }
%struct.grpc_closure = type { %union.anon, ptr, ptr, %union.anon.10 }
%union.anon = type { ptr }
%union.anon.10 = type { i64 }

@_ZN9grpc_core7ExecCtx9exec_ctx_E = thread_local global ptr null, align 8

; Function Attrs: inlinehint mustprogress nounwind uwtable
define linkonce_odr noundef zeroext i1 @_Z24grpc_closure_list_appendP17grpc_closure_listP12grpc_closure(ptr noundef %0, ptr noundef %1) #6 comdat {
  %3 = alloca i1, align 1
  %4 = alloca ptr, align 8
  %5 = alloca ptr, align 8
  %6 = alloca i8, align 1
  store ptr %0, ptr %4, align 8, !tbaa !57
  store ptr %1, ptr %5, align 8, !tbaa !11
  %7 = load ptr, ptr %5, align 8, !tbaa !11
  %8 = icmp eq ptr %7, null
  br i1 %8, label %9, label %10

9:                                                ; preds = %2
  store i1 false, ptr %3, align 1
  br label %36

10:                                               ; preds = %2
  %11 = load ptr, ptr %5, align 8, !tbaa !11
  %12 = getelementptr inbounds nuw %struct.grpc_closure, ptr %11, i32 0, i32 0
  store ptr null, ptr %12, align 8, !tbaa !25
  call void @llvm.lifetime.start.p0(i64 1, ptr %6) #3
  %13 = load ptr, ptr %4, align 8, !tbaa !57
  %14 = getelementptr inbounds nuw %struct.grpc_closure_list, ptr %13, i32 0, i32 0
  %15 = load ptr, ptr %14, align 8, !tbaa !35
  %16 = icmp eq ptr %15, null
  %17 = zext i1 %16 to i8
  store i8 %17, ptr %6, align 1, !tbaa !8
  %18 = load i8, ptr %6, align 1, !tbaa !8, !range !33, !noundef !34
  %19 = trunc i8 %18 to i1
  br i1 %19, label %20, label %24

20:                                               ; preds = %10
  %21 = load ptr, ptr %5, align 8, !tbaa !11
  %22 = load ptr, ptr %4, align 8, !tbaa !57
  %23 = getelementptr inbounds nuw %struct.grpc_closure_list, ptr %22, i32 0, i32 0
  store ptr %21, ptr %23, align 8, !tbaa !35
  br label %30

24:                                               ; preds = %10
  %25 = load ptr, ptr %5, align 8, !tbaa !11
  %26 = load ptr, ptr %4, align 8, !tbaa !57
  %27 = getelementptr inbounds nuw %struct.grpc_closure_list, ptr %26, i32 0, i32 1
  %28 = load ptr, ptr %27, align 8, !tbaa !60
  %29 = getelementptr inbounds nuw %struct.grpc_closure, ptr %28, i32 0, i32 0
  store ptr %25, ptr %29, align 8, !tbaa !25
  br label %30

30:                                               ; preds = %24, %20
  %31 = load ptr, ptr %5, align 8, !tbaa !11
  %32 = load ptr, ptr %4, align 8, !tbaa !57
  %33 = getelementptr inbounds nuw %struct.grpc_closure_list, ptr %32, i32 0, i32 1
  store ptr %31, ptr %33, align 8, !tbaa !60
  %34 = load i8, ptr %6, align 1, !tbaa !8, !range !33, !noundef !34
  %35 = trunc i8 %34 to i1
  store i1 %35, ptr %3, align 1
  call void @llvm.lifetime.end.p0(i64 1, ptr %6) #3
  br label %36

36:                                               ; preds = %30, %9
  %37 = load i1, ptr %3, align 1
  ret i1 %37
}

; Function Attrs: mustprogress nounwind uwtable
define linkonce_odr noundef ptr @_ZN9grpc_core7ExecCtx12closure_listEv(ptr noundef nonnull align 8 dereferenceable(96) %0) #9 comdat align 2 {
  %2 = alloca ptr, align 8
  store ptr %0, ptr %2, align 8, !tbaa !3
  %3 = load ptr, ptr %2, align 8
  %4 = getelementptr inbounds nuw %"class.grpc_core::ExecCtx", ptr %3, i32 0, i32 1
  ret ptr %4
}

; Function Attrs: mustprogress nounwind uwtable
define linkonce_odr noundef ptr @_ZN9grpc_core7ExecCtx3GetEv() #9 comdat align 2 {
  %1 = call align 8 ptr @llvm.threadlocal.address.p0(ptr align 8 @_ZN9grpc_core7ExecCtx9exec_ctx_E)
  %2 = load ptr, ptr %1, align 8, !tbaa !3
  ret ptr %2
}

; Function Attrs: mustprogress uwtable
define internal void @_ZL14exec_ctx_schedP12grpc_closure(ptr noundef %0) #4 {
  %2 = alloca ptr, align 8
  store ptr %0, ptr %2, align 8, !tbaa !11
  %3 = call noundef ptr @_ZN9grpc_core7ExecCtx3GetEv()
  %4 = call noundef ptr @_ZN9grpc_core7ExecCtx12closure_listEv(ptr noundef nonnull align 8 dereferenceable(96) %3)
  %5 = load ptr, ptr %2, align 8, !tbaa !11
  %6 = call noundef zeroext i1 @_Z24grpc_closure_list_appendP17grpc_closure_listP12grpc_closure(ptr noundef %4, ptr noundef %5)
  ret void
}

; Function Attrs: mustprogress uwtable
define void @_ZN9grpc_core7ExecCtx7RunListERKNS_13DebugLocationEP17grpc_closure_list(ptr noundef nonnull align 1 dereferenceable(1) %0, ptr noundef %1) #4 align 2 {
  %3 = alloca ptr, align 8
  %4 = alloca ptr, align 8
  %5 = alloca ptr, align 8
  %6 = alloca ptr, align 8
  store ptr %0, ptr %3, align 8, !tbaa !51
  store ptr %1, ptr %4, align 8, !tbaa !57
  call void @llvm.lifetime.start.p0(i64 8, ptr %5) #3
  %7 = load ptr, ptr %4, align 8, !tbaa !57
  %8 = getelementptr inbounds nuw %struct.grpc_closure_list, ptr %7, i32 0, i32 0
  %9 = load ptr, ptr %8, align 8, !tbaa !35
  store ptr %9, ptr %5, align 8, !tbaa !11
  br label %10

10:                                               ; preds = %13, %2
  %11 = load ptr, ptr %5, align 8, !tbaa !11
  %12 = icmp ne ptr %11, null
  br i1 %12, label %13, label %19

13:                                               ; preds = %10
  call void @llvm.lifetime.start.p0(i64 8, ptr %6) #3
  %14 = load ptr, ptr %5, align 8, !tbaa !11
  %15 = getelementptr inbounds nuw %struct.grpc_closure, ptr %14, i32 0, i32 0
  %16 = load ptr, ptr %15, align 8, !tbaa !25
  store ptr %16, ptr %6, align 8, !tbaa !11
  %17 = load ptr, ptr %5, align 8, !tbaa !11
  call void @_ZL14exec_ctx_schedP12grpc_closure(ptr noundef %17)
  %18 = load ptr, ptr %6, align 8, !tbaa !11
  store ptr %18, ptr %5, align 8, !tbaa !11
  call void @llvm.lifetime.end.p0(i64 8, ptr %6) #3
  br label %10, !llvm.loop !59

19:                                               ; preds = %10
  %20 = load ptr, ptr %4, align 8, !tbaa !57
  %21 = getelementptr inbounds nuw %struct.grpc_closure_list, ptr %20, i32 0, i32 1
  store ptr null, ptr %21, align 8, !tbaa !60
  %22 = load ptr, ptr %4, align 8, !tbaa !57
  %23 = getelementptr inbounds nuw %struct.grpc_closure_list, ptr %22, i32 0, i32 0
  store ptr null, ptr %23, align 8, !tbaa !35
  call void @llvm.lifetime.end.p0(i64 8, ptr %5) #3
  ret void
}