; Function Attrs: mustprogress nofree norecurse nosync nounwind memory(readwrite, inaccessiblemem: none) uwtable
define void @_ZN9grpc_core7ExecCtx7RunListERKNS_13DebugLocationEP17grpc_closure_list(ptr noundef nonnull readnone align 1 captures(none) dereferenceable(1) %0, ptr noundef captures(none) %1) local_unnamed_addr #8 align 2 {
  %3 = load ptr, ptr %1, align 8, !tbaa !28
  %.not7 = icmp eq ptr %3, null
  br i1 %.not7, label %._crit_edge, label %.lr.ph

.lr.ph:                                           ; preds = %2
  %4 = tail call align 8 ptr @llvm.threadlocal.address.p0(ptr align 8 @_ZN9grpc_core7ExecCtx9exec_ctx_E)
  br label %5

5:                                                ; preds = %.lr.ph, %_ZL14exec_ctx_schedP12grpc_closure.exit
  %.08 = phi ptr [ %3, %.lr.ph ], [ %6, %_ZL14exec_ctx_schedP12grpc_closure.exit ]
  %6 = load ptr, ptr %.08, align 8, !tbaa !8
  %7 = load ptr, ptr %4, align 8, !tbaa !26
  %8 = getelementptr inbounds nuw i8, ptr %7, i64 8
  store ptr null, ptr %.08, align 8, !tbaa !8
  %9 = load ptr, ptr %8, align 8, !tbaa !28
  %10 = icmp eq ptr %9, null
  br i1 %10, label %_ZL14exec_ctx_schedP12grpc_closure.exit, label %11

11:                                               ; preds = %5
  %12 = getelementptr inbounds nuw i8, ptr %7, i64 16
  %13 = load ptr, ptr %12, align 8, !tbaa !30
  br label %_ZL14exec_ctx_schedP12grpc_closure.exit

_ZL14exec_ctx_schedP12grpc_closure.exit:          ; preds = %5, %11
  %.sink.i.i = phi ptr [ %13, %11 ], [ %8, %5 ]
  store ptr %.08, ptr %.sink.i.i, align 8, !tbaa !8
  %14 = getelementptr inbounds nuw i8, ptr %7, i64 16
  store ptr %.08, ptr %14, align 8, !tbaa !30
  %.not = icmp eq ptr %6, null
  br i1 %.not, label %._crit_edge, label %5, !llvm.loop !31

._crit_edge:                                      ; preds = %_ZL14exec_ctx_schedP12grpc_closure.exit, %2
  tail call void @llvm.memset.p0.i64(ptr noundef nonnull align 8 dereferenceable(16) %1, i8 0, i64 16, i1 false)
  ret void
}